ccopy_reg
_reconstructor
p1
(cxmppd.modules.db_fake
DictWatch
p2
c__builtin__
dict
p3
(dp4
S'127.0.0.1'
p5
g1
(g2
g3
(dp6
S'acc'
p7
g1
(g2
g3
(dp8
S'name'
p9
S'ACC'
p10
sS'groups'
p11
g1
(g2
g3
(dtRp12
sS'roster'
p13
g1
(g2
g3
(dtRp14
sS'anon_allow'
p15
S'yes'
p16
sS'password'
p17
S'rZoLDUim'
p18
sS'storage'
p19
g1
(g2
g3
(dtRp20
stRp21
sVpink
p22
g1
(g2
g3
(dp23
S'name'
p24
Vpink
p25
sS'groups'
p26
g1
(g2
g3
(dtRp27
sS'roster'
p28
g1
(g2
g3
(dp29
Vams.127.0.0.1
p30
(dp31
S'state'
p32
S''
sS'subscription'
p33
S'to'
p34
sstRp35
sS'anon_allow'
p36
S'yes'
p37
sS'password'
p38
Vsecret
p39
sS'storage'
p40
g1
(g2
g3
(dtRp41
stRp42
sVb
g1
(g2
g3
(dp43
S'name'
p44
Vb
sS'groups'
p45
g1
(g2
g3
(dtRp46
sS'roster'
p47
g1
(g2
g3
(dp48
Vams.127.0.0.1
p49
(dp50
S'state'
p51
S''
sS'subscription'
p52
S'to'
p53
sstRp54
sS'anon_allow'
p55
S'yes'
p56
sS'password'
p57
Vsecret
p58
sS'storage'
p59
g1
(g2
g3
(dtRp60
stRp61
sS'df'
p62
g1
(g2
g3
(dp63
g9
S'DF'
p64
sg11
g1
(g2
g3
(dtRp65
sg13
g1
(g2
g3
(dtRp66
sg15
g16
sg17
S'PQbSMxbq'
p67
sg19
g1
(g2
g3
(dtRp68
stRp69
sVcar3
p70
g1
(g2
g3
(dp71
S'name'
p72
Vcar3
p73
sS'groups'
p74
g1
(g2
g3
(dtRp75
sS'roster'
p76
g1
(g2
g3
(dp77
Vams.127.0.0.1
p78
(dp79
S'state'
p80
S''
sS'subscription'
p81
S'to'
p82
sstRp83
sS'anon_allow'
p84
S'yes'
p85
sS'password'
p86
Vsecret
p87
sS'storage'
p88
g1
(g2
g3
(dtRp89
stRp90
sVcar1
p91
g1
(g2
g3
(dp92
g72
Vcar1
p93
sg74
g1
(g2
g3
(dtRp94
sg76
g1
(g2
g3
(dp95
Vams.127.0.0.1
p96
(dp97
g80
S''
sg81
g82
sstRp98
sg84
g85
sg86
Vsecret
p99
sg88
g1
(g2
g3
(dtRp100
stRp101
sVyellow
p102
g1
(g2
g3
(dp103
g24
Vyellow
p104
sg26
g1
(g2
g3
(dtRp105
sg28
g1
(g2
g3
(dp106
Vams.127.0.0.1
p107
(dp108
g32
S''
sg33
g34
sstRp109
sg36
g37
sg38
Vsecret
p110
sg40
g1
(g2
g3
(dtRp111
stRp112
sVcar2
p113
g1
(g2
g3
(dp114
g72
Vcar2
p115
sg74
g1
(g2
g3
(dtRp116
sg76
g1
(g2
g3
(dp117
Vams.127.0.0.1
p118
(dp119
g80
S''
sg81
g82
sstRp120
sg84
g85
sg86
Vsecret
p121
sg88
g1
(g2
g3
(dtRp122
stRp123
sVagent
p124
g1
(g2
g3
(dp125
g44
Vagent
p126
sg45
g1
(g2
g3
(dtRp127
sg47
g1
(g2
g3
(dp128
Vams.127.0.0.1
p129
(dp130
g51
S''
sg52
g53
sstRp131
sg55
g56
sg57
Vsecret
p132
sg59
g1
(g2
g3
(dtRp133
stRp134
sVa
g1
(g2
g3
(dp135
g44
Va
sg45
g1
(g2
g3
(dtRp136
sg47
g1
(g2
g3
(dp137
Vams.127.0.0.1
p138
(dp139
g51
S''
sg52
g53
sstRp140
sg55
g56
sg57
Vsecret
p141
sg59
g1
(g2
g3
(dtRp142
stRp143
sS'ams'
p144
g1
(g2
g3
(dp145
g9
S'AMS'
p146
sg11
g1
(g2
g3
(dtRp147
sg13
g1
(g2
g3
(dp148
S'red@127.0.0.1'
p149
(dp150
S'state'
p151
S''
sS'subscription'
p152
S'from'
p153
ssS'pink@127.0.0.1'
p154
(dp155
g151
S''
sg152
g153
ssS'yellow@127.0.0.1'
p156
(dp157
g151
S''
sg152
g153
sstRp158
sg15
g16
sg17
S'uctLGwrQ'
p159
sg19
g1
(g2
g3
(dtRp160
stRp161
sVred
p162
g1
(g2
g3
(dp163
g24
Vred
p164
sg26
g1
(g2
g3
(dtRp165
sg28
g1
(g2
g3
(dp166
Vams.127.0.0.1
p167
(dp168
g32
S''
sg33
g34
sstRp169
sg36
g37
sg38
Vsecret
p170
sg40
g1
(g2
g3
(dtRp171
stRp172
sS'__ir__'
p173
(dp174
g15
g16
sg17
S'test'
p175
sg19
(dp176
S'karma'
p177
(dp178
S'down'
p179
I307200
sS'tot_up'
p180
I0
sS'tot_down'
p181
I0
sS'up'
p182
I307200307200307200
sS'last_time'
p183
F0
sssg11
(dp184
sg13
(dp185
sstRp186
stRp187
.